target datalayout = "e-m:e-p270:32:32-p271:32:32-p272:64:64-i64:64-i128:128-f80:128-n8:16:32:64-S128"
target triple = "x86_64-pc-linux-gnu"

%struct.UDataInfo = type { i16, i16, i8, i8, i8, i8, [4 x i8], [4 x i8], [4 x i8] }
%struct.UDataSwapper = type { i8, i8, i8, i8, ptr, ptr, ptr, ptr, ptr, ptr, ptr, ptr, ptr, ptr, ptr }

@.str.14 = private unnamed_addr constant [120 x i8] c"ulayout_swap(): data format %02x.%02x.%02x.%02x (format version %02x) is not recognized as text layout properties data\0A\00", align 1
@.str.15 = private unnamed_addr constant [81 x i8] c"ulayout_swap(): too few bytes (%d after header) for text layout properties data\0A\00", align 1
@.str.16 = private unnamed_addr constant [70 x i8] c"ulayout_swap(): too few indexes (%d) for text layout properties data\0A\00", align 1
@.str.17 = private unnamed_addr constant [88 x i8] c"ulayout_swap(): too few bytes (%d after header) for all of text layout properties data\0A\00", align 1

; Function Attrs: inlinehint mustprogress nounwind uwtable
define internal noundef signext i8 @_ZL9U_FAILURE10UErrorCode(i32 noundef %0) #2 {
  %2 = alloca i32, align 4
  store i32 %0, ptr %2, align 4, !tbaa !11
  %3 = load i32, ptr %2, align 4, !tbaa !11
  %4 = icmp sgt i32 %3, 0
  %5 = zext i1 %4 to i8
  ret i8 %5
}

; Function Attrs: mustprogress uwtable
define internal noundef i32 @_ZL12ulayout_swapPK12UDataSwapperPKviPvP10UErrorCode(ptr noundef %0, ptr noundef %1, i32 noundef %2, ptr noundef %3, ptr noundef %4) #0 {
  %6 = alloca i32, align 4
  %7 = alloca ptr, align 8
  %8 = alloca ptr, align 8
  %9 = alloca i32, align 4
  %10 = alloca ptr, align 8
  %11 = alloca ptr, align 8
  %12 = alloca i32, align 4
  %13 = alloca i32, align 4
  %14 = alloca ptr, align 8
  %15 = alloca ptr, align 8
  %16 = alloca ptr, align 8
  %17 = alloca ptr, align 8
  %18 = alloca i32, align 4
  %19 = alloca [8 x i32], align 16
  %20 = alloca i32, align 4
  %21 = alloca i32, align 4
  %22 = alloca i32, align 4
  %23 = alloca i32, align 4
  %24 = alloca i32, align 4
  %25 = alloca i32, align 4
  store ptr %0, ptr %7, align 8, !tbaa !3
  store ptr %1, ptr %8, align 8, !tbaa !8
  store i32 %2, ptr %9, align 4, !tbaa !9
  store ptr %3, ptr %10, align 8, !tbaa !8
  store ptr %4, ptr %11, align 8, !tbaa !8
  call void @llvm.lifetime.start.p0(i64 4, ptr %12) #6
  %26 = load ptr, ptr %7, align 8, !tbaa !3
  %27 = load ptr, ptr %8, align 8, !tbaa !8
  %28 = load i32, ptr %9, align 4, !tbaa !9
  %29 = load ptr, ptr %10, align 8, !tbaa !8
  %30 = load ptr, ptr %11, align 8, !tbaa !8
  %31 = call i32 @udata_swapDataHeader_77(ptr noundef %26, ptr noundef %27, i32 noundef %28, ptr noundef %29, ptr noundef %30)
  store i32 %31, ptr %12, align 4, !tbaa !9
  %32 = load ptr, ptr %11, align 8, !tbaa !8
  %33 = icmp eq ptr %32, null
  br i1 %33, label %39, label %34

34:                                               ; preds = %5
  %35 = load ptr, ptr %11, align 8, !tbaa !8
  %36 = load i32, ptr %35, align 4, !tbaa !11
  %37 = call noundef signext i8 @_ZL9U_FAILURE10UErrorCode(i32 noundef %36)
  %38 = icmp ne i8 %37, 0
  br i1 %38, label %39, label %40

39:                                               ; preds = %34, %5
  store i32 0, ptr %6, align 4
  store i32 1, ptr %13, align 4
  br label %240

40:                                               ; preds = %34
  call void @llvm.lifetime.start.p0(i64 8, ptr %14) #6
  %41 = load ptr, ptr %8, align 8, !tbaa !8
  %42 = getelementptr inbounds i8, ptr %41, i64 4
  store ptr %42, ptr %14, align 8, !tbaa !8
  %43 = load ptr, ptr %14, align 8, !tbaa !8
  %44 = getelementptr inbounds nuw %struct.UDataInfo, ptr %43, i32 0, i32 6
  %45 = getelementptr inbounds [4 x i8], ptr %44, i64 0, i64 0
  %46 = load i8, ptr %45, align 2, !tbaa !13
  %47 = zext i8 %46 to i32
  %48 = icmp eq i32 %47, 76
  br i1 %48, label %49, label %77

49:                                               ; preds = %40
  %50 = load ptr, ptr %14, align 8, !tbaa !8
  %51 = getelementptr inbounds nuw %struct.UDataInfo, ptr %50, i32 0, i32 6
  %52 = getelementptr inbounds [4 x i8], ptr %51, i64 0, i64 1
  %53 = load i8, ptr %52, align 1, !tbaa !13
  %54 = zext i8 %53 to i32
  %55 = icmp eq i32 %54, 97
  br i1 %55, label %56, label %77

56:                                               ; preds = %49
  %57 = load ptr, ptr %14, align 8, !tbaa !8
  %58 = getelementptr inbounds nuw %struct.UDataInfo, ptr %57, i32 0, i32 6
  %59 = getelementptr inbounds [4 x i8], ptr %58, i64 0, i64 2
  %60 = load i8, ptr %59, align 2, !tbaa !13
  %61 = zext i8 %60 to i32
  %62 = icmp eq i32 %61, 121
  br i1 %62, label %63, label %77

63:                                               ; preds = %56
  %64 = load ptr, ptr %14, align 8, !tbaa !8
  %65 = getelementptr inbounds nuw %struct.UDataInfo, ptr %64, i32 0, i32 6
  %66 = getelementptr inbounds [4 x i8], ptr %65, i64 0, i64 3
  %67 = load i8, ptr %66, align 1, !tbaa !13
  %68 = zext i8 %67 to i32
  %69 = icmp eq i32 %68, 111
  br i1 %69, label %70, label %77

70:                                               ; preds = %63
  %71 = load ptr, ptr %14, align 8, !tbaa !8
  %72 = getelementptr inbounds nuw %struct.UDataInfo, ptr %71, i32 0, i32 7
  %73 = getelementptr inbounds [4 x i8], ptr %72, i64 0, i64 0
  %74 = load i8, ptr %73, align 2, !tbaa !13
  %75 = zext i8 %74 to i32
  %76 = icmp eq i32 %75, 1
  br i1 %76, label %105, label %77

77:                                               ; preds = %70, %63, %56, %49, %40
  %78 = load ptr, ptr %7, align 8, !tbaa !3
  %79 = load ptr, ptr %14, align 8, !tbaa !8
  %80 = getelementptr inbounds nuw %struct.UDataInfo, ptr %79, i32 0, i32 6
  %81 = getelementptr inbounds [4 x i8], ptr %80, i64 0, i64 0
  %82 = load i8, ptr %81, align 2, !tbaa !13
  %83 = zext i8 %82 to i32
  %84 = load ptr, ptr %14, align 8, !tbaa !8
  %85 = getelementptr inbounds nuw %struct.UDataInfo, ptr %84, i32 0, i32 6
  %86 = getelementptr inbounds [4 x i8], ptr %85, i64 0, i64 1
  %87 = load i8, ptr %86, align 1, !tbaa !13
  %88 = zext i8 %87 to i32
  %89 = load ptr, ptr %14, align 8, !tbaa !8
  %90 = getelementptr inbounds nuw %struct.UDataInfo, ptr %89, i32 0, i32 6
  %91 = getelementptr inbounds [4 x i8], ptr %90, i64 0, i64 2
  %92 = load i8, ptr %91, align 2, !tbaa !13
  %93 = zext i8 %92 to i32
  %94 = load ptr, ptr %14, align 8, !tbaa !8
  %95 = getelementptr inbounds nuw %struct.UDataInfo, ptr %94, i32 0, i32 6
  %96 = getelementptr inbounds [4 x i8], ptr %95, i64 0, i64 3
  %97 = load i8, ptr %96, align 1, !tbaa !13
  %98 = zext i8 %97 to i32
  %99 = load ptr, ptr %14, align 8, !tbaa !8
  %100 = getelementptr inbounds nuw %struct.UDataInfo, ptr %99, i32 0, i32 7
  %101 = getelementptr inbounds [4 x i8], ptr %100, i64 0, i64 0
  %102 = load i8, ptr %101, align 2, !tbaa !13
  %103 = zext i8 %102 to i32
  call void (ptr, ptr, ...) @udata_printError_77(ptr noundef %78, ptr noundef @.str.14, i32 noundef %83, i32 noundef %88, i32 noundef %93, i32 noundef %98, i32 noundef %103)
  %104 = load ptr, ptr %11, align 8, !tbaa !8
  store i32 16, ptr %104, align 4, !tbaa !11
  store i32 0, ptr %6, align 4
  store i32 1, ptr %13, align 4
  br label %239

105:                                              ; preds = %70
  call void @llvm.lifetime.start.p0(i64 8, ptr %15) #6
  %106 = load ptr, ptr %8, align 8, !tbaa !8
  %107 = load i32, ptr %12, align 4, !tbaa !9
  %108 = sext i32 %107 to i64
  %109 = getelementptr inbounds i8, ptr %106, i64 %108
  store ptr %109, ptr %15, align 8, !tbaa !27
  call void @llvm.lifetime.start.p0(i64 8, ptr %16) #6
  %110 = load ptr, ptr %10, align 8, !tbaa !8
  %111 = load i32, ptr %12, align 4, !tbaa !9
  %112 = sext i32 %111 to i64
  %113 = getelementptr inbounds i8, ptr %110, i64 %112
  store ptr %113, ptr %16, align 8, !tbaa !27
  call void @llvm.lifetime.start.p0(i64 8, ptr %17) #6
  %114 = load ptr, ptr %15, align 8, !tbaa !27
  store ptr %114, ptr %17, align 8, !tbaa !20
  %115 = load i32, ptr %9, align 4, !tbaa !9
  %116 = icmp sge i32 %115, 0
  br i1 %116, label %117, label %128

117:                                              ; preds = %105
  %118 = load i32, ptr %12, align 4, !tbaa !9
  %119 = load i32, ptr %9, align 4, !tbaa !9
  %120 = sub nsw i32 %119, %118
  store i32 %120, ptr %9, align 4, !tbaa !9
  %121 = load i32, ptr %9, align 4, !tbaa !9
  %122 = icmp slt i32 %121, 48
  br i1 %122, label %123, label %127

123:                                              ; preds = %117
  %124 = load ptr, ptr %7, align 8, !tbaa !3
  %125 = load i32, ptr %9, align 4, !tbaa !9
  call void (ptr, ptr, ...) @udata_printError_77(ptr noundef %124, ptr noundef @.str.15, i32 noundef %125)
  %126 = load ptr, ptr %11, align 8, !tbaa !8
  store i32 8, ptr %126, align 4, !tbaa !11
  store i32 0, ptr %6, align 4
  store i32 1, ptr %13, align 4
  br label %238

127:                                              ; preds = %117
  br label %128

128:                                              ; preds = %127, %105
  call void @llvm.lifetime.start.p0(i64 4, ptr %18) #6
  %129 = load ptr, ptr %7, align 8, !tbaa !3
  %130 = load ptr, ptr %17, align 8, !tbaa !20
  %131 = getelementptr inbounds nuw i32, ptr %130, i64 0
  %132 = load i32, ptr %131, align 4, !tbaa !9
  %133 = call i32 @udata_readInt32_77(ptr noundef %129, i32 noundef %132)
  store i32 %133, ptr %18, align 4, !tbaa !9
  %134 = load i32, ptr %18, align 4, !tbaa !9
  %135 = icmp slt i32 %134, 12
  br i1 %135, label %136, label %140

136:                                              ; preds = %128
  %137 = load ptr, ptr %7, align 8, !tbaa !3
  %138 = load i32, ptr %18, align 4, !tbaa !9
  call void (ptr, ptr, ...) @udata_printError_77(ptr noundef %137, ptr noundef @.str.16, i32 noundef %138)
  %139 = load ptr, ptr %11, align 8, !tbaa !8
  store i32 8, ptr %139, align 4, !tbaa !11
  store i32 0, ptr %6, align 4
  store i32 1, ptr %13, align 4
  br label %237

140:                                              ; preds = %128
  call void @llvm.lifetime.start.p0(i64 32, ptr %19) #6
  call void @llvm.lifetime.start.p0(i64 4, ptr %20) #6
  store i32 1, ptr %20, align 4, !tbaa !9
  br label %141

141:                                              ; preds = %156, %140
  %142 = load i32, ptr %20, align 4, !tbaa !9
  %143 = icmp sle i32 %142, 7
  br i1 %143, label %145, label %144

144:                                              ; preds = %141
  store i32 2, ptr %13, align 4
  call void @llvm.lifetime.end.p0(i64 4, ptr %20) #6
  br label %159

145:                                              ; preds = %141
  %146 = load ptr, ptr %7, align 8, !tbaa !3
  %147 = load ptr, ptr %17, align 8, !tbaa !20
  %148 = load i32, ptr %20, align 4, !tbaa !9
  %149 = sext i32 %148 to i64
  %150 = getelementptr inbounds i32, ptr %147, i64 %149
  %151 = load i32, ptr %150, align 4, !tbaa !9
  %152 = call i32 @udata_readInt32_77(ptr noundef %146, i32 noundef %151)
  %153 = load i32, ptr %20, align 4, !tbaa !9
  %154 = sext i32 %153 to i64
  %155 = getelementptr inbounds [8 x i32], ptr %19, i64 0, i64 %154
  store i32 %152, ptr %155, align 4, !tbaa !9
  br label %156

156:                                              ; preds = %145
  %157 = load i32, ptr %20, align 4, !tbaa !9
  %158 = add nsw i32 %157, 1
  store i32 %158, ptr %20, align 4, !tbaa !9
  br label %141, !llvm.loop !32

159:                                              ; preds = %144
  call void @llvm.lifetime.start.p0(i64 4, ptr %21) #6
  %160 = getelementptr inbounds nuw [8 x i32], ptr %19, i64 0, i64 7
  %161 = load i32, ptr %160, align 4, !tbaa !9
  store i32 %161, ptr %21, align 4, !tbaa !9
  %162 = load i32, ptr %9, align 4, !tbaa !9
  %163 = icmp sge i32 %162, 0
  br i1 %163, label %164, label %232

164:                                              ; preds = %159
  %165 = load i32, ptr %9, align 4, !tbaa !9
  %166 = load i32, ptr %21, align 4, !tbaa !9
  %167 = icmp slt i32 %165, %166
  br i1 %167, label %168, label %172

168:                                              ; preds = %164
  %169 = load ptr, ptr %7, align 8, !tbaa !3
  %170 = load i32, ptr %9, align 4, !tbaa !9
  call void (ptr, ptr, ...) @udata_printError_77(ptr noundef %169, ptr noundef @.str.17, i32 noundef %170)
  %171 = load ptr, ptr %11, align 8, !tbaa !8
  store i32 8, ptr %171, align 4, !tbaa !11
  store i32 0, ptr %6, align 4
  store i32 1, ptr %13, align 4
  br label %236

172:                                              ; preds = %164
  %173 = load ptr, ptr %15, align 8, !tbaa !27
  %174 = load ptr, ptr %16, align 8, !tbaa !27
  %175 = icmp ne ptr %173, %174
  br i1 %175, label %176, label %184

176:                                              ; preds = %172
  br label %177

177:                                              ; preds = %176
  %178 = load ptr, ptr %16, align 8, !tbaa !27
  %179 = load ptr, ptr %15, align 8, !tbaa !27
  %180 = load i32, ptr %21, align 4, !tbaa !9
  %181 = sext i32 %180 to i64
  call void @llvm.memcpy.p0.p0.i64(ptr align 1 %178, ptr align 1 %179, i64 %181, i1 false)
  br label %182

182:                                              ; preds = %177
  br label %183

183:                                              ; preds = %182
  br label %184

184:                                              ; preds = %183, %172
  call void @llvm.lifetime.start.p0(i64 4, ptr %22) #6
  store i32 0, ptr %22, align 4, !tbaa !9
  call void @llvm.lifetime.start.p0(i64 4, ptr %23) #6
  %185 = load i32, ptr %18, align 4, !tbaa !9
  %186 = mul nsw i32 %185, 4
  store i32 %186, ptr %23, align 4, !tbaa !9
  %187 = load ptr, ptr %7, align 8, !tbaa !3
  %188 = getelementptr inbounds nuw %struct.UDataSwapper, ptr %187, i32 0, i32 10
  %189 = load ptr, ptr %188, align 8, !tbaa !24
  %190 = load ptr, ptr %7, align 8, !tbaa !3
  %191 = load ptr, ptr %15, align 8, !tbaa !27
  %192 = load i32, ptr %23, align 4, !tbaa !9
  %193 = load ptr, ptr %16, align 8, !tbaa !27
  %194 = load ptr, ptr %11, align 8, !tbaa !8
  %195 = call noundef i32 %189(ptr noundef %190, ptr noundef %191, i32 noundef %192, ptr noundef %193, ptr noundef %194)
  %196 = load i32, ptr %23, align 4, !tbaa !9
  %197 = load i32, ptr %22, align 4, !tbaa !9
  %198 = add nsw i32 %197, %196
  store i32 %198, ptr %22, align 4, !tbaa !9
  call void @llvm.lifetime.start.p0(i64 4, ptr %24) #6
  store i32 1, ptr %24, align 4, !tbaa !9
  br label %199

199:                                              ; preds = %228, %184
  %200 = load i32, ptr %24, align 4, !tbaa !9
  %201 = icmp sle i32 %200, 7
  br i1 %201, label %203, label %202

202:                                              ; preds = %199
  store i32 7, ptr %13, align 4
  call void @llvm.lifetime.end.p0(i64 4, ptr %24) #6
  br label %231

203:                                              ; preds = %199
  call void @llvm.lifetime.start.p0(i64 4, ptr %25) #6
  %204 = load i32, ptr %24, align 4, !tbaa !9
  %205 = sext i32 %204 to i64
  %206 = getelementptr inbounds [8 x i32], ptr %19, i64 0, i64 %205
  %207 = load i32, ptr %206, align 4, !tbaa !9
  store i32 %207, ptr %25, align 4, !tbaa !9
  %208 = load i32, ptr %25, align 4, !tbaa !9
  %209 = load i32, ptr %22, align 4, !tbaa !9
  %210 = sub nsw i32 %208, %209
  store i32 %210, ptr %23, align 4, !tbaa !9
  %211 = load i32, ptr %23, align 4, !tbaa !9
  %212 = icmp sge i32 %211, 16
  br i1 %212, label %213, label %226

213:                                              ; preds = %203
  %214 = load ptr, ptr %7, align 8, !tbaa !3
  %215 = load ptr, ptr %15, align 8, !tbaa !27
  %216 = load i32, ptr %22, align 4, !tbaa !9
  %217 = sext i32 %216 to i64
  %218 = getelementptr inbounds i8, ptr %215, i64 %217
  %219 = load i32, ptr %23, align 4, !tbaa !9
  %220 = load ptr, ptr %16, align 8, !tbaa !27
  %221 = load i32, ptr %22, align 4, !tbaa !9
  %222 = sext i32 %221 to i64
  %223 = getelementptr inbounds i8, ptr %220, i64 %222
  %224 = load ptr, ptr %11, align 8, !tbaa !8
  %225 = call i32 @utrie_swapAnyVersion_77(ptr noundef %214, ptr noundef %218, i32 noundef %219, ptr noundef %223, ptr noundef %224)
  br label %226

226:                                              ; preds = %213, %203
  %227 = load i32, ptr %25, align 4, !tbaa !9
  store i32 %227, ptr %22, align 4, !tbaa !9
  call void @llvm.lifetime.end.p0(i64 4, ptr %25) #6
  br label %228

228:                                              ; preds = %226
  %229 = load i32, ptr %24, align 4, !tbaa !9
  %230 = add nsw i32 %229, 1
  store i32 %230, ptr %24, align 4, !tbaa !9
  br label %199, !llvm.loop !33

231:                                              ; preds = %202
  call void @llvm.lifetime.end.p0(i64 4, ptr %23) #6
  call void @llvm.lifetime.end.p0(i64 4, ptr %22) #6
  br label %232

232:                                              ; preds = %231, %159
  %233 = load i32, ptr %12, align 4, !tbaa !9
  %234 = load i32, ptr %21, align 4, !tbaa !9
  %235 = add nsw i32 %233, %234
  store i32 %235, ptr %6, align 4
  store i32 1, ptr %13, align 4
  br label %236

236:                                              ; preds = %232, %168
  call void @llvm.lifetime.end.p0(i64 4, ptr %21) #6
  call void @llvm.lifetime.end.p0(i64 32, ptr %19) #6
  br label %237

237:                                              ; preds = %236, %136
  call void @llvm.lifetime.end.p0(i64 4, ptr %18) #6
  br label %238

238:                                              ; preds = %237, %123
  call void @llvm.lifetime.end.p0(i64 8, ptr %17) #6
  call void @llvm.lifetime.end.p0(i64 8, ptr %16) #6
  call void @llvm.lifetime.end.p0(i64 8, ptr %15) #6
  br label %239

239:                                              ; preds = %238, %77
  call void @llvm.lifetime.end.p0(i64 8, ptr %14) #6
  br label %240

240:                                              ; preds = %239, %39
  call void @llvm.lifetime.end.p0(i64 4, ptr %12) #6
  %241 = load i32, ptr %6, align 4
  ret i32 %241
}