; Function Attrs: mustprogress uwtable
define internal noundef i32 @_ZL12ulayout_swapPK12UDataSwapperPKviPvP10UErrorCode(ptr noundef %0, ptr noundef %1, i32 noundef %2, ptr noundef %3, ptr noundef %4) #0 {
  %6 = alloca [8 x i32], align 16
  %7 = tail call i32 @udata_swapDataHeader_77(ptr noundef %0, ptr noundef %1, i32 noundef %2, ptr noundef %3, ptr noundef %4)
  %8 = icmp eq ptr %4, null
  br i1 %8, label %91, label %9

9:                                                ; preds = %5
  %10 = load i32, ptr %4, align 4, !tbaa !3
  %11 = icmp slt i32 %10, 1
  br i1 %11, label %12, label %91

12:                                               ; preds = %9
  %13 = getelementptr inbounds nuw i8, ptr %1, i64 12
  %14 = load i8, ptr %13, align 2, !tbaa !7
  %15 = icmp eq i8 %14, 76
  %16 = getelementptr inbounds nuw i8, ptr %1, i64 13
  %17 = load i8, ptr %16, align 1, !tbaa !7
  %18 = icmp eq i8 %17, 97
  %or.cond = select i1 %15, i1 %18, i1 false
  br i1 %or.cond, label %19, label %._crit_edge

19:                                               ; preds = %12
  %20 = getelementptr inbounds nuw i8, ptr %1, i64 14
  %21 = load i8, ptr %20, align 2, !tbaa !7
  %22 = icmp eq i8 %21, 121
  br i1 %22, label %23, label %._crit_edge

23:                                               ; preds = %19
  %24 = getelementptr inbounds nuw i8, ptr %1, i64 15
  %25 = load i8, ptr %24, align 1, !tbaa !7
  %26 = icmp eq i8 %25, 111
  br i1 %26, label %27, label %._crit_edge

27:                                               ; preds = %23
  %28 = getelementptr inbounds nuw i8, ptr %1, i64 16
  %29 = load i8, ptr %28, align 2, !tbaa !7
  %30 = icmp eq i8 %29, 1
  br i1 %30, label %43, label %._crit_edge

._crit_edge:                                      ; preds = %12, %27, %23, %19
  %31 = phi i8 [ 97, %27 ], [ 97, %23 ], [ 97, %19 ], [ %17, %12 ]
  %32 = zext i8 %14 to i32
  %33 = zext i8 %31 to i32
  %34 = getelementptr inbounds nuw i8, ptr %1, i64 14
  %35 = load i8, ptr %34, align 2, !tbaa !7
  %36 = zext i8 %35 to i32
  %37 = getelementptr inbounds nuw i8, ptr %1, i64 15
  %38 = load i8, ptr %37, align 1, !tbaa !7
  %39 = zext i8 %38 to i32
  %40 = getelementptr inbounds nuw i8, ptr %1, i64 16
  %41 = load i8, ptr %40, align 2, !tbaa !7
  %42 = zext i8 %41 to i32
  tail call void (ptr, ptr, ...) @udata_printError_77(ptr noundef %0, ptr noundef nonnull @.str.14, i32 noundef %32, i32 noundef %33, i32 noundef %36, i32 noundef %39, i32 noundef %42)
  store i32 16, ptr %4, align 4, !tbaa !3
  br label %91

43:                                               ; preds = %27
  %44 = sext i32 %7 to i64
  %45 = getelementptr inbounds i8, ptr %1, i64 %44
  %46 = getelementptr inbounds i8, ptr %3, i64 %44
  %47 = icmp sgt i32 %2, -1
  br i1 %47, label %48, label %52

48:                                               ; preds = %43
  %49 = sub nsw i32 %2, %7
  %50 = icmp slt i32 %49, 48
  br i1 %50, label %51, label %52

51:                                               ; preds = %48
  tail call void (ptr, ptr, ...) @udata_printError_77(ptr noundef %0, ptr noundef nonnull @.str.15, i32 noundef %49)
  store i32 8, ptr %4, align 4, !tbaa !3
  br label %91

52:                                               ; preds = %48, %43
  %.082 = phi i32 [ %49, %48 ], [ %2, %43 ]
  %53 = load i32, ptr %45, align 4, !tbaa !15
  %54 = tail call i32 @udata_readInt32_77(ptr noundef %0, i32 noundef %53)
  %55 = icmp slt i32 %54, 12
  br i1 %55, label %56, label %57

56:                                               ; preds = %52
  tail call void (ptr, ptr, ...) @udata_printError_77(ptr noundef %0, ptr noundef nonnull @.str.16, i32 noundef %54)
  store i32 8, ptr %4, align 4, !tbaa !3
  br label %91

57:                                               ; preds = %52
  call void @llvm.lifetime.start.p0(i64 32, ptr nonnull %6) #5
  br label %62

58:                                               ; preds = %62
  %59 = getelementptr inbounds nuw i8, ptr %6, i64 28
  %60 = load i32, ptr %59, align 4, !tbaa !15
  %61 = icmp sgt i32 %.082, -1
  br i1 %61, label %67, label %.loopexit

62:                                               ; preds = %57, %62
  %indvars.iv = phi i64 [ 1, %57 ], [ %indvars.iv.next, %62 ]
  %63 = getelementptr inbounds nuw i32, ptr %45, i64 %indvars.iv
  %64 = load i32, ptr %63, align 4, !tbaa !15
  %65 = tail call i32 @udata_readInt32_77(ptr noundef %0, i32 noundef %64)
  %66 = getelementptr inbounds nuw [8 x i32], ptr %6, i64 0, i64 %indvars.iv
  store i32 %65, ptr %66, align 4, !tbaa !15
  %indvars.iv.next = add nuw nsw i64 %indvars.iv, 1
  %exitcond.not = icmp eq i64 %indvars.iv.next, 8
  br i1 %exitcond.not, label %58, label %62, !llvm.loop !25

67:                                               ; preds = %58
  %68 = icmp slt i32 %.082, %60
  br i1 %68, label %69, label %70

69:                                               ; preds = %67
  tail call void (ptr, ptr, ...) @udata_printError_77(ptr noundef %0, ptr noundef nonnull @.str.17, i32 noundef %.082)
  store i32 8, ptr %4, align 4, !tbaa !3
  br label %90

70:                                               ; preds = %67
  %.not95 = icmp eq ptr %1, %3
  br i1 %.not95, label %73, label %71

71:                                               ; preds = %70
  %72 = sext i32 %60 to i64
  tail call void @llvm.memcpy.p0.p0.i64(ptr align 1 %46, ptr nonnull align 1 %45, i64 %72, i1 false)
  br label %73

73:                                               ; preds = %71, %70
  %74 = shl nsw i32 %54, 2
  %75 = getelementptr inbounds nuw i8, ptr %0, i64 56
  %76 = load ptr, ptr %75, align 8, !tbaa !19
  %77 = tail call noundef i32 %76(ptr noundef %0, ptr noundef nonnull %45, i32 noundef %74, ptr noundef %46, ptr noundef nonnull %4)
  br label %78

78:                                               ; preds = %73, %88
  %indvars.iv100 = phi i64 [ 1, %73 ], [ %indvars.iv.next101, %88 ]
  %.08197 = phi i32 [ %74, %73 ], [ %80, %88 ]
  %79 = getelementptr inbounds nuw [8 x i32], ptr %6, i64 0, i64 %indvars.iv100
  %80 = load i32, ptr %79, align 4, !tbaa !15
  %81 = sub nsw i32 %80, %.08197
  %82 = icmp sgt i32 %81, 15
  br i1 %82, label %83, label %88

83:                                               ; preds = %78
  %84 = sext i32 %.08197 to i64
  %85 = getelementptr inbounds i8, ptr %45, i64 %84
  %86 = getelementptr inbounds i8, ptr %46, i64 %84
  %87 = tail call i32 @utrie_swapAnyVersion_77(ptr noundef %0, ptr noundef nonnull %85, i32 noundef %81, ptr noundef %86, ptr noundef nonnull %4)
  br label %88

88:                                               ; preds = %83, %78
  %indvars.iv.next101 = add nuw nsw i64 %indvars.iv100, 1
  %exitcond103.not = icmp eq i64 %indvars.iv.next101, 8
  br i1 %exitcond103.not, label %.loopexit, label %78, !llvm.loop !26

.loopexit:                                        ; preds = %88, %58
  %89 = add nsw i32 %60, %7
  br label %90

90:                                               ; preds = %.loopexit, %69
  %.4 = phi i32 [ 0, %69 ], [ %89, %.loopexit ]
  call void @llvm.lifetime.end.p0(i64 32, ptr nonnull %6) #5
  br label %91

91:                                               ; preds = %._crit_edge, %56, %90, %51, %5, %9
  %.0 = phi i32 [ 0, %9 ], [ 0, %5 ], [ 0, %._crit_edge ], [ 0, %51 ], [ 0, %56 ], [ %.4, %90 ]
  ret i32 %.0
}